
_mult:     file format elf32-i386


Disassembly of section .text:

00000000 <main>:
# define MAXINT ((~ 0x0) & (~ (0x1 << (INTBITS - 1))))
#endif // MAXINT

int
main(int argc, char *argv[])
{
   0:	8d 4c 24 04          	lea    0x4(%esp),%ecx
   4:	83 e4 f0             	and    $0xfffffff0,%esp
   7:	ff 71 fc             	push   -0x4(%ecx)
   a:	55                   	push   %ebp
   b:	89 e5                	mov    %esp,%ebp
   d:	57                   	push   %edi
   e:	56                   	push   %esi
   f:	53                   	push   %ebx
  10:	51                   	push   %ecx
  11:	83 ec 18             	sub    $0x18,%esp
  int i;
  int j;
  int max = MAXINT;
  int sum = 0;

  if(argc > 1) {
  14:	83 39 01             	cmpl   $0x1,(%ecx)
{
  17:	8b 41 04             	mov    0x4(%ecx),%eax
  if(argc > 1) {
  1a:	0f 8f b2 00 00 00    	jg     d2 <main+0xd2>
    // change the upper bound on the iteration loops.
    max = atoi(argv[1]);
  }
  printf(1, "mult begin: pid = %d     max = %d\n", getpid(), max);
  20:	e8 be 03 00 00       	call   3e3 <getpid>
  25:	68 ff ff ff 7f       	push   $0x7fffffff
  2a:	50                   	push   %eax
  2b:	68 28 08 00 00       	push   $0x828
  30:	6a 01                	push   $0x1
  32:	e8 99 04 00 00       	call   4d0 <printf>
  37:	83 c4 10             	add    $0x10,%esp
  int max = MAXINT;
  3a:	ba ff ff ff 7f       	mov    $0x7fffffff,%edx

  for (j = 0; j < max; j++) {
  3f:	c7 45 e0 00 00 00 00 	movl   $0x0,-0x20(%ebp)
  int sum = 0;
  46:	31 db                	xor    %ebx,%ebx
      sum ++;
      if (sum % (MAXSHORT * MAXSHORT) == 0) {
        printf(1, "  mult: %d  %d\n", getpid(), sum);
      }
      if (sum > (MAXINT / 2)) {
        sum = 0;
  48:	31 ff                	xor    %edi,%edi
  4a:	8d b6 00 00 00 00    	lea    0x0(%esi),%esi
    for(i = 1; i < max; i++) {
  50:	83 fa 01             	cmp    $0x1,%edx
  53:	74 63                	je     b8 <main+0xb8>
  55:	be 01 00 00 00       	mov    $0x1,%esi
  5a:	eb 14                	jmp    70 <main+0x70>
  5c:	8d 74 26 00          	lea    0x0(%esi,%eiz,1),%esi
        sum = 0;
  60:	81 fb 00 00 00 40    	cmp    $0x40000000,%ebx
  66:	0f 4d df             	cmovge %edi,%ebx
    for(i = 1; i < max; i++) {
  69:	83 c6 01             	add    $0x1,%esi
  6c:	39 f2                	cmp    %esi,%edx
  6e:	74 3a                	je     aa <main+0xaa>
      sum ++;
  70:	83 c3 01             	add    $0x1,%ebx
  73:	69 c3 01 00 ff bf    	imul   $0xbfff0001,%ebx,%eax
      if (sum % (MAXSHORT * MAXSHORT) == 0) {
  79:	83 f8 03             	cmp    $0x3,%eax
  7c:	77 e2                	ja     60 <main+0x60>
  7e:	89 55 e4             	mov    %edx,-0x1c(%ebp)
        printf(1, "  mult: %d  %d\n", getpid(), sum);
  81:	e8 5d 03 00 00       	call   3e3 <getpid>
  86:	53                   	push   %ebx
  87:	50                   	push   %eax
  88:	68 4b 08 00 00       	push   $0x84b
  8d:	6a 01                	push   $0x1
  8f:	e8 3c 04 00 00       	call   4d0 <printf>
  94:	83 c4 10             	add    $0x10,%esp
  97:	8b 55 e4             	mov    -0x1c(%ebp),%edx
        sum = 0;
  9a:	81 fb 00 00 00 40    	cmp    $0x40000000,%ebx
  a0:	0f 4d df             	cmovge %edi,%ebx
    for(i = 1; i < max; i++) {
  a3:	83 c6 01             	add    $0x1,%esi
  a6:	39 f2                	cmp    %esi,%edx
  a8:	75 c6                	jne    70 <main+0x70>
  for (j = 0; j < max; j++) {
  aa:	83 45 e0 01          	addl   $0x1,-0x20(%ebp)
  ae:	8b 45 e0             	mov    -0x20(%ebp),%eax
  b1:	39 c2                	cmp    %eax,%edx
  b3:	7f 9b                	jg     50 <main+0x50>
  b5:	8d 76 00             	lea    0x0(%esi),%esi
      }
    }
  }
  printf(1, "mult done: pid = %d\n", getpid());
  b8:	e8 26 03 00 00       	call   3e3 <getpid>
  bd:	83 ec 04             	sub    $0x4,%esp
  c0:	50                   	push   %eax
  c1:	68 5b 08 00 00       	push   $0x85b
  c6:	6a 01                	push   $0x1
  c8:	e8 03 04 00 00       	call   4d0 <printf>

  // in xv6, exit() does not take a parameter.
  exit();
  cd:	e8 91 02 00 00       	call   363 <exit>
    max = atoi(argv[1]);
  d2:	83 ec 0c             	sub    $0xc,%esp
  d5:	ff 70 04             	push   0x4(%eax)
  d8:	e8 13 02 00 00       	call   2f0 <atoi>
  dd:	89 45 e4             	mov    %eax,-0x1c(%ebp)
  printf(1, "mult begin: pid = %d     max = %d\n", getpid(), max);
  e0:	e8 fe 02 00 00       	call   3e3 <getpid>
  e5:	8b 55 e4             	mov    -0x1c(%ebp),%edx
  e8:	52                   	push   %edx
  e9:	50                   	push   %eax
  ea:	68 28 08 00 00       	push   $0x828
  ef:	6a 01                	push   $0x1
  f1:	e8 da 03 00 00       	call   4d0 <printf>
  for (j = 0; j < max; j++) {
  f6:	8b 55 e4             	mov    -0x1c(%ebp),%edx
  f9:	83 c4 20             	add    $0x20,%esp
  fc:	85 d2                	test   %edx,%edx
  fe:	0f 8f 3b ff ff ff    	jg     3f <main+0x3f>
 104:	eb b2                	jmp    b8 <main+0xb8>
 106:	66 90                	xchg   %ax,%ax
 108:	66 90                	xchg   %ax,%ax
 10a:	66 90                	xchg   %ax,%ax
 10c:	66 90                	xchg   %ax,%ax
 10e:	66 90                	xchg   %ax,%ax

00000110 <strcpy>:
#include "user.h"
#include "x86.h"

char*
strcpy(char *s, const char *t)
{
 110:	55                   	push   %ebp
  char *os;

  os = s;
  while((*s++ = *t++) != 0)
 111:	31 c0                	xor    %eax,%eax
{
 113:	89 e5                	mov    %esp,%ebp
 115:	53                   	push   %ebx
 116:	8b 4d 08             	mov    0x8(%ebp),%ecx
 119:	8b 5d 0c             	mov    0xc(%ebp),%ebx
 11c:	8d 74 26 00          	lea    0x0(%esi,%eiz,1),%esi
  while((*s++ = *t++) != 0)
 120:	0f b6 14 03          	movzbl (%ebx,%eax,1),%edx
 124:	88 14 01             	mov    %dl,(%ecx,%eax,1)
 127:	83 c0 01             	add    $0x1,%eax
 12a:	84 d2                	test   %dl,%dl
 12c:	75 f2                	jne    120 <strcpy+0x10>
    ;
  return os;
}
 12e:	8b 5d fc             	mov    -0x4(%ebp),%ebx
 131:	89 c8                	mov    %ecx,%eax
 133:	c9                   	leave  
 134:	c3                   	ret    
 135:	8d b4 26 00 00 00 00 	lea    0x0(%esi,%eiz,1),%esi
 13c:	8d 74 26 00          	lea    0x0(%esi,%eiz,1),%esi

00000140 <strcmp>:

int
strcmp(const char *p, const char *q)
{
 140:	55                   	push   %ebp
 141:	89 e5                	mov    %esp,%ebp
 143:	53                   	push   %ebx
 144:	8b 55 08             	mov    0x8(%ebp),%edx
 147:	8b 4d 0c             	mov    0xc(%ebp),%ecx
  while(*p && *p == *q)
 14a:	0f b6 02             	movzbl (%edx),%eax
 14d:	84 c0                	test   %al,%al
 14f:	75 17                	jne    168 <strcmp+0x28>
 151:	eb 3a                	jmp    18d <strcmp+0x4d>
 153:	8d 74 26 00          	lea    0x0(%esi,%eiz,1),%esi
 157:	90                   	nop
 158:	0f b6 42 01          	movzbl 0x1(%edx),%eax
    p++, q++;
 15c:	83 c2 01             	add    $0x1,%edx
 15f:	8d 59 01             	lea    0x1(%ecx),%ebx
  while(*p && *p == *q)
 162:	84 c0                	test   %al,%al
 164:	74 1a                	je     180 <strcmp+0x40>
    p++, q++;
 166:	89 d9                	mov    %ebx,%ecx
  while(*p && *p == *q)
 168:	0f b6 19             	movzbl (%ecx),%ebx
 16b:	38 c3                	cmp    %al,%bl
 16d:	74 e9                	je     158 <strcmp+0x18>
  return (uchar)*p - (uchar)*q;
 16f:	29 d8                	sub    %ebx,%eax
}
 171:	8b 5d fc             	mov    -0x4(%ebp),%ebx
 174:	c9                   	leave  
 175:	c3                   	ret    
 176:	8d b4 26 00 00 00 00 	lea    0x0(%esi,%eiz,1),%esi
 17d:	8d 76 00             	lea    0x0(%esi),%esi
  return (uchar)*p - (uchar)*q;
 180:	0f b6 59 01          	movzbl 0x1(%ecx),%ebx
 184:	31 c0                	xor    %eax,%eax
 186:	29 d8                	sub    %ebx,%eax
}
 188:	8b 5d fc             	mov    -0x4(%ebp),%ebx
 18b:	c9                   	leave  
 18c:	c3                   	ret    
  return (uchar)*p - (uchar)*q;
 18d:	0f b6 19             	movzbl (%ecx),%ebx
 190:	31 c0                	xor    %eax,%eax
 192:	eb db                	jmp    16f <strcmp+0x2f>
 194:	8d b4 26 00 00 00 00 	lea    0x0(%esi,%eiz,1),%esi
 19b:	8d 74 26 00          	lea    0x0(%esi,%eiz,1),%esi
 19f:	90                   	nop

000001a0 <strlen>:

uint
strlen(const char *s)
{
 1a0:	55                   	push   %ebp
 1a1:	89 e5                	mov    %esp,%ebp
 1a3:	8b 55 08             	mov    0x8(%ebp),%edx
  int n;

  for(n = 0; s[n]; n++)
 1a6:	80 3a 00             	cmpb   $0x0,(%edx)
 1a9:	74 15                	je     1c0 <strlen+0x20>
 1ab:	31 c0                	xor    %eax,%eax
 1ad:	8d 76 00             	lea    0x0(%esi),%esi
 1b0:	83 c0 01             	add    $0x1,%eax
 1b3:	80 3c 02 00          	cmpb   $0x0,(%edx,%eax,1)
 1b7:	89 c1                	mov    %eax,%ecx
 1b9:	75 f5                	jne    1b0 <strlen+0x10>
    ;
  return n;
}
 1bb:	89 c8                	mov    %ecx,%eax
 1bd:	5d                   	pop    %ebp
 1be:	c3                   	ret    
 1bf:	90                   	nop
  for(n = 0; s[n]; n++)
 1c0:	31 c9                	xor    %ecx,%ecx
}
 1c2:	5d                   	pop    %ebp
 1c3:	89 c8                	mov    %ecx,%eax
 1c5:	c3                   	ret    
 1c6:	8d b4 26 00 00 00 00 	lea    0x0(%esi,%eiz,1),%esi
 1cd:	8d 76 00             	lea    0x0(%esi),%esi

000001d0 <memset>:

void*
memset(void *dst, int c, uint n)
{
 1d0:	55                   	push   %ebp
 1d1:	89 e5                	mov    %esp,%ebp
 1d3:	57                   	push   %edi
 1d4:	8b 55 08             	mov    0x8(%ebp),%edx
}

static inline void
stosb(void *addr, int data, int cnt)
{
  asm volatile("cld; rep stosb" :
 1d7:	8b 4d 10             	mov    0x10(%ebp),%ecx
 1da:	8b 45 0c             	mov    0xc(%ebp),%eax
 1dd:	89 d7                	mov    %edx,%edi
 1df:	fc                   	cld    
 1e0:	f3 aa                	rep stos %al,%es:(%edi)
  stosb(dst, c, n);
  return dst;
}
 1e2:	8b 7d fc             	mov    -0x4(%ebp),%edi
 1e5:	89 d0                	mov    %edx,%eax
 1e7:	c9                   	leave  
 1e8:	c3                   	ret    
 1e9:	8d b4 26 00 00 00 00 	lea    0x0(%esi,%eiz,1),%esi

000001f0 <strchr>:

char*
strchr(const char *s, char c)
{
 1f0:	55                   	push   %ebp
 1f1:	89 e5                	mov    %esp,%ebp
 1f3:	8b 45 08             	mov    0x8(%ebp),%eax
 1f6:	0f b6 4d 0c          	movzbl 0xc(%ebp),%ecx
  for(; *s; s++)
 1fa:	0f b6 10             	movzbl (%eax),%edx
 1fd:	84 d2                	test   %dl,%dl
 1ff:	75 12                	jne    213 <strchr+0x23>
 201:	eb 1d                	jmp    220 <strchr+0x30>
 203:	8d 74 26 00          	lea    0x0(%esi,%eiz,1),%esi
 207:	90                   	nop
 208:	0f b6 50 01          	movzbl 0x1(%eax),%edx
 20c:	83 c0 01             	add    $0x1,%eax
 20f:	84 d2                	test   %dl,%dl
 211:	74 0d                	je     220 <strchr+0x30>
    if(*s == c)
 213:	38 d1                	cmp    %dl,%cl
 215:	75 f1                	jne    208 <strchr+0x18>
      return (char*)s;
  return 0;
}
 217:	5d                   	pop    %ebp
 218:	c3                   	ret    
 219:	8d b4 26 00 00 00 00 	lea    0x0(%esi,%eiz,1),%esi
  return 0;
 220:	31 c0                	xor    %eax,%eax
}
 222:	5d                   	pop    %ebp
 223:	c3                   	ret    
 224:	8d b4 26 00 00 00 00 	lea    0x0(%esi,%eiz,1),%esi
 22b:	8d 74 26 00          	lea    0x0(%esi,%eiz,1),%esi
 22f:	90                   	nop

00000230 <gets>:

char*
gets(char *buf, int max)
{
 230:	55                   	push   %ebp
 231:	89 e5                	mov    %esp,%ebp
 233:	57                   	push   %edi
 234:	56                   	push   %esi
  int i, cc;
  char c;

  for(i=0; i+1 < max; ){
    cc = read(0, &c, 1);
 235:	8d 7d e7             	lea    -0x19(%ebp),%edi
{
 238:	53                   	push   %ebx
  for(i=0; i+1 < max; ){
 239:	31 db                	xor    %ebx,%ebx
{
 23b:	83 ec 1c             	sub    $0x1c,%esp
  for(i=0; i+1 < max; ){
 23e:	eb 27                	jmp    267 <gets+0x37>
    cc = read(0, &c, 1);
 240:	83 ec 04             	sub    $0x4,%esp
 243:	6a 01                	push   $0x1
 245:	57                   	push   %edi
 246:	6a 00                	push   $0x0
 248:	e8 2e 01 00 00       	call   37b <read>
    if(cc < 1)
 24d:	83 c4 10             	add    $0x10,%esp
 250:	85 c0                	test   %eax,%eax
 252:	7e 1d                	jle    271 <gets+0x41>
      break;
    buf[i++] = c;
 254:	0f b6 45 e7          	movzbl -0x19(%ebp),%eax
 258:	8b 55 08             	mov    0x8(%ebp),%edx
 25b:	88 44 1a ff          	mov    %al,-0x1(%edx,%ebx,1)
    if(c == '\n' || c == '\r')
 25f:	3c 0a                	cmp    $0xa,%al
 261:	74 1d                	je     280 <gets+0x50>
 263:	3c 0d                	cmp    $0xd,%al
 265:	74 19                	je     280 <gets+0x50>
  for(i=0; i+1 < max; ){
 267:	89 de                	mov    %ebx,%esi
 269:	83 c3 01             	add    $0x1,%ebx
 26c:	3b 5d 0c             	cmp    0xc(%ebp),%ebx
 26f:	7c cf                	jl     240 <gets+0x10>
      break;
  }
  buf[i] = '\0';
 271:	8b 45 08             	mov    0x8(%ebp),%eax
 274:	c6 04 30 00          	movb   $0x0,(%eax,%esi,1)
  return buf;
}
 278:	8d 65 f4             	lea    -0xc(%ebp),%esp
 27b:	5b                   	pop    %ebx
 27c:	5e                   	pop    %esi
 27d:	5f                   	pop    %edi
 27e:	5d                   	pop    %ebp
 27f:	c3                   	ret    
  buf[i] = '\0';
 280:	8b 45 08             	mov    0x8(%ebp),%eax
 283:	89 de                	mov    %ebx,%esi
 285:	c6 04 30 00          	movb   $0x0,(%eax,%esi,1)
}
 289:	8d 65 f4             	lea    -0xc(%ebp),%esp
 28c:	5b                   	pop    %ebx
 28d:	5e                   	pop    %esi
 28e:	5f                   	pop    %edi
 28f:	5d                   	pop    %ebp
 290:	c3                   	ret    
 291:	8d b4 26 00 00 00 00 	lea    0x0(%esi,%eiz,1),%esi
 298:	8d b4 26 00 00 00 00 	lea    0x0(%esi,%eiz,1),%esi
 29f:	90                   	nop

000002a0 <stat>:

int
stat(const char *n, struct stat *st)
{
 2a0:	55                   	push   %ebp
 2a1:	89 e5                	mov    %esp,%ebp
 2a3:	56                   	push   %esi
 2a4:	53                   	push   %ebx
  int fd;
  int r;

  fd = open(n, O_RDONLY);
 2a5:	83 ec 08             	sub    $0x8,%esp
 2a8:	6a 00                	push   $0x0
 2aa:	ff 75 08             	push   0x8(%ebp)
 2ad:	e8 f1 00 00 00       	call   3a3 <open>
  if(fd < 0)
 2b2:	83 c4 10             	add    $0x10,%esp
 2b5:	85 c0                	test   %eax,%eax
 2b7:	78 27                	js     2e0 <stat+0x40>
    return -1;
  r = fstat(fd, st);
 2b9:	83 ec 08             	sub    $0x8,%esp
 2bc:	ff 75 0c             	push   0xc(%ebp)
 2bf:	89 c3                	mov    %eax,%ebx
 2c1:	50                   	push   %eax
 2c2:	e8 f4 00 00 00       	call   3bb <fstat>
  close(fd);
 2c7:	89 1c 24             	mov    %ebx,(%esp)
  r = fstat(fd, st);
 2ca:	89 c6                	mov    %eax,%esi
  close(fd);
 2cc:	e8 ba 00 00 00       	call   38b <close>
  return r;
 2d1:	83 c4 10             	add    $0x10,%esp
}
 2d4:	8d 65 f8             	lea    -0x8(%ebp),%esp
 2d7:	89 f0                	mov    %esi,%eax
 2d9:	5b                   	pop    %ebx
 2da:	5e                   	pop    %esi
 2db:	5d                   	pop    %ebp
 2dc:	c3                   	ret    
 2dd:	8d 76 00             	lea    0x0(%esi),%esi
    return -1;
 2e0:	be ff ff ff ff       	mov    $0xffffffff,%esi
 2e5:	eb ed                	jmp    2d4 <stat+0x34>
 2e7:	8d b4 26 00 00 00 00 	lea    0x0(%esi,%eiz,1),%esi
 2ee:	66 90                	xchg   %ax,%ax

000002f0 <atoi>:

int
atoi(const char *s)
{
 2f0:	55                   	push   %ebp
 2f1:	89 e5                	mov    %esp,%ebp
 2f3:	53                   	push   %ebx
 2f4:	8b 55 08             	mov    0x8(%ebp),%edx
  int n;

  n = 0;
  while('0' <= *s && *s <= '9')
 2f7:	0f be 02             	movsbl (%edx),%eax
 2fa:	8d 48 d0             	lea    -0x30(%eax),%ecx
 2fd:	80 f9 09             	cmp    $0x9,%cl
  n = 0;
 300:	b9 00 00 00 00       	mov    $0x0,%ecx
  while('0' <= *s && *s <= '9')
 305:	77 1e                	ja     325 <atoi+0x35>
 307:	8d b4 26 00 00 00 00 	lea    0x0(%esi,%eiz,1),%esi
 30e:	66 90                	xchg   %ax,%ax
    n = n*10 + *s++ - '0';
 310:	83 c2 01             	add    $0x1,%edx
 313:	8d 0c 89             	lea    (%ecx,%ecx,4),%ecx
 316:	8d 4c 48 d0          	lea    -0x30(%eax,%ecx,2),%ecx
  while('0' <= *s && *s <= '9')
 31a:	0f be 02             	movsbl (%edx),%eax
 31d:	8d 58 d0             	lea    -0x30(%eax),%ebx
 320:	80 fb 09             	cmp    $0x9,%bl
 323:	76 eb                	jbe    310 <atoi+0x20>
  return n;
}
 325:	8b 5d fc             	mov    -0x4(%ebp),%ebx
 328:	89 c8                	mov    %ecx,%eax
 32a:	c9                   	leave  
 32b:	c3                   	ret    
 32c:	8d 74 26 00          	lea    0x0(%esi,%eiz,1),%esi

00000330 <memmove>:

void*
memmove(void *vdst, const void *vsrc, int n)
{
 330:	55                   	push   %ebp
 331:	89 e5                	mov    %esp,%ebp
 333:	57                   	push   %edi
 334:	8b 45 10             	mov    0x10(%ebp),%eax
 337:	8b 55 08             	mov    0x8(%ebp),%edx
 33a:	56                   	push   %esi
 33b:	8b 75 0c             	mov    0xc(%ebp),%esi
  char *dst;
  const char *src;

  dst = vdst;
  src = vsrc;
  while(n-- > 0)
 33e:	85 c0                	test   %eax,%eax
 340:	7e 13                	jle    355 <memmove+0x25>
 342:	01 d0                	add    %edx,%eax
  dst = vdst;
 344:	89 d7                	mov    %edx,%edi
 346:	8d b4 26 00 00 00 00 	lea    0x0(%esi,%eiz,1),%esi
 34d:	8d 76 00             	lea    0x0(%esi),%esi
    *dst++ = *src++;
 350:	a4                   	movsb  %ds:(%esi),%es:(%edi)
  while(n-- > 0)
 351:	39 f8                	cmp    %edi,%eax
 353:	75 fb                	jne    350 <memmove+0x20>
  return vdst;
}
 355:	5e                   	pop    %esi
 356:	89 d0                	mov    %edx,%eax
 358:	5f                   	pop    %edi
 359:	5d                   	pop    %ebp
 35a:	c3                   	ret    

0000035b <fork>:
  name: \
    movl $SYS_ ## name, %eax; \
    int $T_SYSCALL; \
    ret

SYSCALL(fork)
 35b:	b8 01 00 00 00       	mov    $0x1,%eax
 360:	cd 40                	int    $0x40
 362:	c3                   	ret    

00000363 <exit>:
SYSCALL(exit)
 363:	b8 02 00 00 00       	mov    $0x2,%eax
 368:	cd 40                	int    $0x40
 36a:	c3                   	ret    

0000036b <wait>:
SYSCALL(wait)
 36b:	b8 03 00 00 00       	mov    $0x3,%eax
 370:	cd 40                	int    $0x40
 372:	c3                   	ret    

00000373 <pipe>:
SYSCALL(pipe)
 373:	b8 04 00 00 00       	mov    $0x4,%eax
 378:	cd 40                	int    $0x40
 37a:	c3                   	ret    

0000037b <read>:
SYSCALL(read)
 37b:	b8 05 00 00 00       	mov    $0x5,%eax
 380:	cd 40                	int    $0x40
 382:	c3                   	ret    

00000383 <write>:
SYSCALL(write)
 383:	b8 10 00 00 00       	mov    $0x10,%eax
 388:	cd 40                	int    $0x40
 38a:	c3                   	ret    

0000038b <close>:
SYSCALL(close)
 38b:	b8 15 00 00 00       	mov    $0x15,%eax
 390:	cd 40                	int    $0x40
 392:	c3                   	ret    

00000393 <kill>:
SYSCALL(kill)
 393:	b8 06 00 00 00       	mov    $0x6,%eax
 398:	cd 40                	int    $0x40
 39a:	c3                   	ret    

0000039b <exec>:
SYSCALL(exec)
 39b:	b8 07 00 00 00       	mov    $0x7,%eax
 3a0:	cd 40                	int    $0x40
 3a2:	c3                   	ret    

000003a3 <open>:
SYSCALL(open)
 3a3:	b8 0f 00 00 00       	mov    $0xf,%eax
 3a8:	cd 40                	int    $0x40
 3aa:	c3                   	ret    

000003ab <mknod>:
SYSCALL(mknod)
 3ab:	b8 11 00 00 00       	mov    $0x11,%eax
 3b0:	cd 40                	int    $0x40
 3b2:	c3                   	ret    

000003b3 <unlink>:
SYSCALL(unlink)
 3b3:	b8 12 00 00 00       	mov    $0x12,%eax
 3b8:	cd 40                	int    $0x40
 3ba:	c3                   	ret    

000003bb <fstat>:
SYSCALL(fstat)
 3bb:	b8 08 00 00 00       	mov    $0x8,%eax
 3c0:	cd 40                	int    $0x40
 3c2:	c3                   	ret    

000003c3 <link>:
SYSCALL(link)
 3c3:	b8 13 00 00 00       	mov    $0x13,%eax
 3c8:	cd 40                	int    $0x40
 3ca:	c3                   	ret    

000003cb <mkdir>:
SYSCALL(mkdir)
 3cb:	b8 14 00 00 00       	mov    $0x14,%eax
 3d0:	cd 40                	int    $0x40
 3d2:	c3                   	ret    

000003d3 <chdir>:
SYSCALL(chdir)
 3d3:	b8 09 00 00 00       	mov    $0x9,%eax
 3d8:	cd 40                	int    $0x40
 3da:	c3                   	ret    

000003db <dup>:
SYSCALL(dup)
 3db:	b8 0a 00 00 00       	mov    $0xa,%eax
 3e0:	cd 40                	int    $0x40
 3e2:	c3                   	ret    

000003e3 <getpid>:
SYSCALL(getpid)
 3e3:	b8 0b 00 00 00       	mov    $0xb,%eax
 3e8:	cd 40                	int    $0x40
 3ea:	c3                   	ret    

000003eb <sbrk>:
SYSCALL(sbrk)
 3eb:	b8 0c 00 00 00       	mov    $0xc,%eax
 3f0:	cd 40                	int    $0x40
 3f2:	c3                   	ret    

000003f3 <sleep>:
SYSCALL(sleep)
 3f3:	b8 0d 00 00 00       	mov    $0xd,%eax
 3f8:	cd 40                	int    $0x40
 3fa:	c3                   	ret    

000003fb <uptime>:
SYSCALL(uptime)
 3fb:	b8 0e 00 00 00       	mov    $0xe,%eax
 400:	cd 40                	int    $0x40
 402:	c3                   	ret    

00000403 <getppid>:
#ifdef GETPPID
SYSCALL(getppid)
 403:	b8 16 00 00 00       	mov    $0x16,%eax
 408:	cd 40                	int    $0x40
 40a:	c3                   	ret    

0000040b <cps>:
#endif // GETPPID    
#ifdef CPS
SYSCALL(cps)
 40b:	b8 17 00 00 00       	mov    $0x17,%eax
 410:	cd 40                	int    $0x40
 412:	c3                   	ret    

00000413 <renice>:
#endif // CPS
#ifdef LOTTERY
SYSCALL(renice)
 413:	b8 18 00 00 00       	mov    $0x18,%eax
 418:	cd 40                	int    $0x40
 41a:	c3                   	ret    
 41b:	66 90                	xchg   %ax,%ax
 41d:	66 90                	xchg   %ax,%ax
 41f:	90                   	nop

00000420 <printint>:
  write(fd, &c, 1);
}

static void
printint(int fd, int xx, int base, int sgn)
{
 420:	55                   	push   %ebp
 421:	89 e5                	mov    %esp,%ebp
 423:	57                   	push   %edi
 424:	56                   	push   %esi
 425:	53                   	push   %ebx
 426:	83 ec 3c             	sub    $0x3c,%esp
 429:	89 4d c4             	mov    %ecx,-0x3c(%ebp)
  uint x;

  neg = 0;
  if(sgn && xx < 0){
    neg = 1;
    x = -xx;
 42c:	89 d1                	mov    %edx,%ecx
{
 42e:	89 45 b8             	mov    %eax,-0x48(%ebp)
  if(sgn && xx < 0){
 431:	85 d2                	test   %edx,%edx
 433:	0f 89 7f 00 00 00    	jns    4b8 <printint+0x98>
 439:	f6 45 08 01          	testb  $0x1,0x8(%ebp)
 43d:	74 79                	je     4b8 <printint+0x98>
    neg = 1;
 43f:	c7 45 bc 01 00 00 00 	movl   $0x1,-0x44(%ebp)
    x = -xx;
 446:	f7 d9                	neg    %ecx
  } else {
    x = xx;
  }

  i = 0;
 448:	31 db                	xor    %ebx,%ebx
 44a:	8d 75 d7             	lea    -0x29(%ebp),%esi
 44d:	8d 76 00             	lea    0x0(%esi),%esi
  do{
    buf[i++] = digits[x % base];
 450:	89 c8                	mov    %ecx,%eax
 452:	31 d2                	xor    %edx,%edx
 454:	89 cf                	mov    %ecx,%edi
 456:	f7 75 c4             	divl   -0x3c(%ebp)
 459:	0f b6 92 d0 08 00 00 	movzbl 0x8d0(%edx),%edx
 460:	89 45 c0             	mov    %eax,-0x40(%ebp)
 463:	89 d8                	mov    %ebx,%eax
 465:	8d 5b 01             	lea    0x1(%ebx),%ebx
  }while((x /= base) != 0);
 468:	8b 4d c0             	mov    -0x40(%ebp),%ecx
    buf[i++] = digits[x % base];
 46b:	88 14 1e             	mov    %dl,(%esi,%ebx,1)
  }while((x /= base) != 0);
 46e:	39 7d c4             	cmp    %edi,-0x3c(%ebp)
 471:	76 dd                	jbe    450 <printint+0x30>
  if(neg)
 473:	8b 4d bc             	mov    -0x44(%ebp),%ecx
 476:	85 c9                	test   %ecx,%ecx
 478:	74 0c                	je     486 <printint+0x66>
    buf[i++] = '-';
 47a:	c6 44 1d d8 2d       	movb   $0x2d,-0x28(%ebp,%ebx,1)
    buf[i++] = digits[x % base];
 47f:	89 d8                	mov    %ebx,%eax
    buf[i++] = '-';
 481:	ba 2d 00 00 00       	mov    $0x2d,%edx

  while(--i >= 0)
 486:	8b 7d b8             	mov    -0x48(%ebp),%edi
 489:	8d 5c 05 d7          	lea    -0x29(%ebp,%eax,1),%ebx
 48d:	eb 07                	jmp    496 <printint+0x76>
 48f:	90                   	nop
    putc(fd, buf[i]);
 490:	0f b6 13             	movzbl (%ebx),%edx
 493:	83 eb 01             	sub    $0x1,%ebx
  write(fd, &c, 1);
 496:	83 ec 04             	sub    $0x4,%esp
 499:	88 55 d7             	mov    %dl,-0x29(%ebp)
 49c:	6a 01                	push   $0x1
 49e:	56                   	push   %esi
 49f:	57                   	push   %edi
 4a0:	e8 de fe ff ff       	call   383 <write>
  while(--i >= 0)
 4a5:	83 c4 10             	add    $0x10,%esp
 4a8:	39 de                	cmp    %ebx,%esi
 4aa:	75 e4                	jne    490 <printint+0x70>
}
 4ac:	8d 65 f4             	lea    -0xc(%ebp),%esp
 4af:	5b                   	pop    %ebx
 4b0:	5e                   	pop    %esi
 4b1:	5f                   	pop    %edi
 4b2:	5d                   	pop    %ebp
 4b3:	c3                   	ret    
 4b4:	8d 74 26 00          	lea    0x0(%esi,%eiz,1),%esi
  neg = 0;
 4b8:	c7 45 bc 00 00 00 00 	movl   $0x0,-0x44(%ebp)
 4bf:	eb 87                	jmp    448 <printint+0x28>
 4c1:	8d b4 26 00 00 00 00 	lea    0x0(%esi,%eiz,1),%esi
 4c8:	8d b4 26 00 00 00 00 	lea    0x0(%esi,%eiz,1),%esi
 4cf:	90                   	nop

000004d0 <printf>:

// Print to the given fd. Only understands %d, %x, %p, %s.
void
printf(int fd, const char *fmt, ...)
{
 4d0:	55                   	push   %ebp
 4d1:	89 e5                	mov    %esp,%ebp
 4d3:	57                   	push   %edi
 4d4:	56                   	push   %esi
 4d5:	53                   	push   %ebx
 4d6:	83 ec 2c             	sub    $0x2c,%esp
  int c, i, state;
  uint *ap;

  state = 0;
  ap = (uint*)(void*)&fmt + 1;
  for(i = 0; fmt[i]; i++){
 4d9:	8b 5d 0c             	mov    0xc(%ebp),%ebx
{
 4dc:	8b 75 08             	mov    0x8(%ebp),%esi
  for(i = 0; fmt[i]; i++){
 4df:	0f b6 13             	movzbl (%ebx),%edx
 4e2:	84 d2                	test   %dl,%dl
 4e4:	74 6a                	je     550 <printf+0x80>
  ap = (uint*)(void*)&fmt + 1;
 4e6:	8d 45 10             	lea    0x10(%ebp),%eax
 4e9:	83 c3 01             	add    $0x1,%ebx
  write(fd, &c, 1);
 4ec:	8d 7d e7             	lea    -0x19(%ebp),%edi
  state = 0;
 4ef:	31 c9                	xor    %ecx,%ecx
  ap = (uint*)(void*)&fmt + 1;
 4f1:	89 45 d0             	mov    %eax,-0x30(%ebp)
 4f4:	eb 36                	jmp    52c <printf+0x5c>
 4f6:	8d b4 26 00 00 00 00 	lea    0x0(%esi,%eiz,1),%esi
 4fd:	8d 76 00             	lea    0x0(%esi),%esi
 500:	89 4d d4             	mov    %ecx,-0x2c(%ebp)
    c = fmt[i] & 0xff;
    if(state == 0){
      if(c == '%'){
        state = '%';
 503:	b9 25 00 00 00       	mov    $0x25,%ecx
      if(c == '%'){
 508:	83 f8 25             	cmp    $0x25,%eax
 50b:	74 15                	je     522 <printf+0x52>
  write(fd, &c, 1);
 50d:	83 ec 04             	sub    $0x4,%esp
 510:	88 55 e7             	mov    %dl,-0x19(%ebp)
 513:	6a 01                	push   $0x1
 515:	57                   	push   %edi
 516:	56                   	push   %esi
 517:	e8 67 fe ff ff       	call   383 <write>
 51c:	8b 4d d4             	mov    -0x2c(%ebp),%ecx
      } else {
        putc(fd, c);
 51f:	83 c4 10             	add    $0x10,%esp
  for(i = 0; fmt[i]; i++){
 522:	0f b6 13             	movzbl (%ebx),%edx
 525:	83 c3 01             	add    $0x1,%ebx
 528:	84 d2                	test   %dl,%dl
 52a:	74 24                	je     550 <printf+0x80>
    c = fmt[i] & 0xff;
 52c:	0f b6 c2             	movzbl %dl,%eax
    if(state == 0){
 52f:	85 c9                	test   %ecx,%ecx
 531:	74 cd                	je     500 <printf+0x30>
      }
    } else if(state == '%'){
 533:	83 f9 25             	cmp    $0x25,%ecx
 536:	75 ea                	jne    522 <printf+0x52>
      if(c == 'd' || c == 'u'){
 538:	83 f8 25             	cmp    $0x25,%eax
 53b:	0f 84 ff 00 00 00    	je     640 <printf+0x170>
 541:	83 e8 63             	sub    $0x63,%eax
 544:	83 f8 15             	cmp    $0x15,%eax
 547:	77 17                	ja     560 <printf+0x90>
 549:	ff 24 85 78 08 00 00 	jmp    *0x878(,%eax,4)
        putc(fd, c);
      }
      state = 0;
    }
  }
}
 550:	8d 65 f4             	lea    -0xc(%ebp),%esp
 553:	5b                   	pop    %ebx
 554:	5e                   	pop    %esi
 555:	5f                   	pop    %edi
 556:	5d                   	pop    %ebp
 557:	c3                   	ret    
 558:	8d b4 26 00 00 00 00 	lea    0x0(%esi,%eiz,1),%esi
 55f:	90                   	nop
  write(fd, &c, 1);
 560:	83 ec 04             	sub    $0x4,%esp
 563:	88 55 d4             	mov    %dl,-0x2c(%ebp)
 566:	6a 01                	push   $0x1
 568:	57                   	push   %edi
 569:	56                   	push   %esi
 56a:	c6 45 e7 25          	movb   $0x25,-0x19(%ebp)
 56e:	e8 10 fe ff ff       	call   383 <write>
        putc(fd, c);
 573:	0f b6 55 d4          	movzbl -0x2c(%ebp),%edx
  write(fd, &c, 1);
 577:	83 c4 0c             	add    $0xc,%esp
 57a:	88 55 e7             	mov    %dl,-0x19(%ebp)
 57d:	6a 01                	push   $0x1
 57f:	57                   	push   %edi
 580:	56                   	push   %esi
 581:	e8 fd fd ff ff       	call   383 <write>
        putc(fd, c);
 586:	83 c4 10             	add    $0x10,%esp
      state = 0;
 589:	31 c9                	xor    %ecx,%ecx
 58b:	eb 95                	jmp    522 <printf+0x52>
 58d:	8d 76 00             	lea    0x0(%esi),%esi
        printint(fd, *ap, 16, 0);
 590:	83 ec 0c             	sub    $0xc,%esp
 593:	b9 10 00 00 00       	mov    $0x10,%ecx
 598:	6a 00                	push   $0x0
 59a:	8b 45 d0             	mov    -0x30(%ebp),%eax
 59d:	8b 10                	mov    (%eax),%edx
 59f:	89 f0                	mov    %esi,%eax
 5a1:	e8 7a fe ff ff       	call   420 <printint>
        ap++;
 5a6:	83 45 d0 04          	addl   $0x4,-0x30(%ebp)
 5aa:	83 c4 10             	add    $0x10,%esp
      state = 0;
 5ad:	31 c9                	xor    %ecx,%ecx
 5af:	e9 6e ff ff ff       	jmp    522 <printf+0x52>
 5b4:	8d 74 26 00          	lea    0x0(%esi,%eiz,1),%esi
        printint(fd, *ap, 10, 1);
 5b8:	83 ec 0c             	sub    $0xc,%esp
 5bb:	b9 0a 00 00 00       	mov    $0xa,%ecx
 5c0:	6a 01                	push   $0x1
 5c2:	eb d6                	jmp    59a <printf+0xca>
 5c4:	8d 74 26 00          	lea    0x0(%esi,%eiz,1),%esi
        putc(fd, *ap);
 5c8:	8b 45 d0             	mov    -0x30(%ebp),%eax
  write(fd, &c, 1);
 5cb:	83 ec 04             	sub    $0x4,%esp
        putc(fd, *ap);
 5ce:	8b 00                	mov    (%eax),%eax
  write(fd, &c, 1);
 5d0:	6a 01                	push   $0x1
 5d2:	57                   	push   %edi
 5d3:	56                   	push   %esi
        putc(fd, *ap);
 5d4:	88 45 e7             	mov    %al,-0x19(%ebp)
  write(fd, &c, 1);
 5d7:	e8 a7 fd ff ff       	call   383 <write>
        ap++;
 5dc:	83 45 d0 04          	addl   $0x4,-0x30(%ebp)
 5e0:	83 c4 10             	add    $0x10,%esp
      state = 0;
 5e3:	31 c9                	xor    %ecx,%ecx
 5e5:	e9 38 ff ff ff       	jmp    522 <printf+0x52>
 5ea:	8d b6 00 00 00 00    	lea    0x0(%esi),%esi
        s = (char*)*ap;
 5f0:	8b 45 d0             	mov    -0x30(%ebp),%eax
 5f3:	8b 10                	mov    (%eax),%edx
        ap++;
 5f5:	83 c0 04             	add    $0x4,%eax
 5f8:	89 45 d0             	mov    %eax,-0x30(%ebp)
        if(s == 0)
 5fb:	85 d2                	test   %edx,%edx
 5fd:	74 51                	je     650 <printf+0x180>
        while(*s != 0){
 5ff:	0f b6 02             	movzbl (%edx),%eax
      state = 0;
 602:	31 c9                	xor    %ecx,%ecx
        while(*s != 0){
 604:	84 c0                	test   %al,%al
 606:	0f 84 16 ff ff ff    	je     522 <printf+0x52>
 60c:	89 5d d4             	mov    %ebx,-0x2c(%ebp)
 60f:	89 d3                	mov    %edx,%ebx
 611:	8d b4 26 00 00 00 00 	lea    0x0(%esi,%eiz,1),%esi
  write(fd, &c, 1);
 618:	83 ec 04             	sub    $0x4,%esp
          s++;
 61b:	83 c3 01             	add    $0x1,%ebx
 61e:	88 45 e7             	mov    %al,-0x19(%ebp)
  write(fd, &c, 1);
 621:	6a 01                	push   $0x1
 623:	57                   	push   %edi
 624:	56                   	push   %esi
 625:	e8 59 fd ff ff       	call   383 <write>
        while(*s != 0){
 62a:	0f b6 03             	movzbl (%ebx),%eax
 62d:	83 c4 10             	add    $0x10,%esp
 630:	84 c0                	test   %al,%al
 632:	75 e4                	jne    618 <printf+0x148>
      state = 0;
 634:	8b 5d d4             	mov    -0x2c(%ebp),%ebx
 637:	31 c9                	xor    %ecx,%ecx
 639:	e9 e4 fe ff ff       	jmp    522 <printf+0x52>
 63e:	66 90                	xchg   %ax,%ax
        putc(fd, c);
 640:	88 55 e7             	mov    %dl,-0x19(%ebp)
  write(fd, &c, 1);
 643:	83 ec 04             	sub    $0x4,%esp
 646:	e9 32 ff ff ff       	jmp    57d <printf+0xad>
 64b:	8d 74 26 00          	lea    0x0(%esi,%eiz,1),%esi
 64f:	90                   	nop
          s = "(null)";
 650:	ba 70 08 00 00       	mov    $0x870,%edx
        while(*s != 0){
 655:	89 5d d4             	mov    %ebx,-0x2c(%ebp)
 658:	b8 28 00 00 00       	mov    $0x28,%eax
 65d:	89 d3                	mov    %edx,%ebx
 65f:	eb b7                	jmp    618 <printf+0x148>
 661:	66 90                	xchg   %ax,%ax
 663:	66 90                	xchg   %ax,%ax
 665:	66 90                	xchg   %ax,%ax
 667:	66 90                	xchg   %ax,%ax
 669:	66 90                	xchg   %ax,%ax
 66b:	66 90                	xchg   %ax,%ax
 66d:	66 90                	xchg   %ax,%ax
 66f:	90                   	nop

00000670 <free>:
static Header base;
static Header *freep;

void
free(void *ap)
{
 670:	55                   	push   %ebp
  Header *bp, *p;

  bp = (Header*)ap - 1;
  for(p = freep; !(bp > p && bp < p->s.ptr); p = p->s.ptr)
 671:	a1 bc 0b 00 00       	mov    0xbbc,%eax
{
 676:	89 e5                	mov    %esp,%ebp
 678:	57                   	push   %edi
 679:	56                   	push   %esi
 67a:	53                   	push   %ebx
 67b:	8b 5d 08             	mov    0x8(%ebp),%ebx
  bp = (Header*)ap - 1;
 67e:	8d 4b f8             	lea    -0x8(%ebx),%ecx
  for(p = freep; !(bp > p && bp < p->s.ptr); p = p->s.ptr)
 681:	8d b4 26 00 00 00 00 	lea    0x0(%esi,%eiz,1),%esi
 688:	89 c2                	mov    %eax,%edx
 68a:	8b 00                	mov    (%eax),%eax
 68c:	39 ca                	cmp    %ecx,%edx
 68e:	73 30                	jae    6c0 <free+0x50>
 690:	39 c1                	cmp    %eax,%ecx
 692:	72 04                	jb     698 <free+0x28>
    if(p >= p->s.ptr && (bp > p || bp < p->s.ptr))
 694:	39 c2                	cmp    %eax,%edx
 696:	72 f0                	jb     688 <free+0x18>
      break;
  if(bp + bp->s.size == p->s.ptr){
 698:	8b 73 fc             	mov    -0x4(%ebx),%esi
 69b:	8d 3c f1             	lea    (%ecx,%esi,8),%edi
 69e:	39 f8                	cmp    %edi,%eax
 6a0:	74 30                	je     6d2 <free+0x62>
    bp->s.size += p->s.ptr->s.size;
    bp->s.ptr = p->s.ptr->s.ptr;
 6a2:	89 43 f8             	mov    %eax,-0x8(%ebx)
  } else
    bp->s.ptr = p->s.ptr;
  if(p + p->s.size == bp){
 6a5:	8b 42 04             	mov    0x4(%edx),%eax
 6a8:	8d 34 c2             	lea    (%edx,%eax,8),%esi
 6ab:	39 f1                	cmp    %esi,%ecx
 6ad:	74 3a                	je     6e9 <free+0x79>
    p->s.size += bp->s.size;
    p->s.ptr = bp->s.ptr;
 6af:	89 0a                	mov    %ecx,(%edx)
  } else
    p->s.ptr = bp;
  freep = p;
}
 6b1:	5b                   	pop    %ebx
  freep = p;
 6b2:	89 15 bc 0b 00 00    	mov    %edx,0xbbc
}
 6b8:	5e                   	pop    %esi
 6b9:	5f                   	pop    %edi
 6ba:	5d                   	pop    %ebp
 6bb:	c3                   	ret    
 6bc:	8d 74 26 00          	lea    0x0(%esi,%eiz,1),%esi
    if(p >= p->s.ptr && (bp > p || bp < p->s.ptr))
 6c0:	39 c2                	cmp    %eax,%edx
 6c2:	72 c4                	jb     688 <free+0x18>
 6c4:	39 c1                	cmp    %eax,%ecx
 6c6:	73 c0                	jae    688 <free+0x18>
  if(bp + bp->s.size == p->s.ptr){
 6c8:	8b 73 fc             	mov    -0x4(%ebx),%esi
 6cb:	8d 3c f1             	lea    (%ecx,%esi,8),%edi
 6ce:	39 f8                	cmp    %edi,%eax
 6d0:	75 d0                	jne    6a2 <free+0x32>
    bp->s.size += p->s.ptr->s.size;
 6d2:	03 70 04             	add    0x4(%eax),%esi
 6d5:	89 73 fc             	mov    %esi,-0x4(%ebx)
    bp->s.ptr = p->s.ptr->s.ptr;
 6d8:	8b 02                	mov    (%edx),%eax
 6da:	8b 00                	mov    (%eax),%eax
 6dc:	89 43 f8             	mov    %eax,-0x8(%ebx)
  if(p + p->s.size == bp){
 6df:	8b 42 04             	mov    0x4(%edx),%eax
 6e2:	8d 34 c2             	lea    (%edx,%eax,8),%esi
 6e5:	39 f1                	cmp    %esi,%ecx
 6e7:	75 c6                	jne    6af <free+0x3f>
    p->s.size += bp->s.size;
 6e9:	03 43 fc             	add    -0x4(%ebx),%eax
  freep = p;
 6ec:	89 15 bc 0b 00 00    	mov    %edx,0xbbc
    p->s.size += bp->s.size;
 6f2:	89 42 04             	mov    %eax,0x4(%edx)
    p->s.ptr = bp->s.ptr;
 6f5:	8b 4b f8             	mov    -0x8(%ebx),%ecx
 6f8:	89 0a                	mov    %ecx,(%edx)
}
 6fa:	5b                   	pop    %ebx
 6fb:	5e                   	pop    %esi
 6fc:	5f                   	pop    %edi
 6fd:	5d                   	pop    %ebp
 6fe:	c3                   	ret    
 6ff:	90                   	nop

00000700 <malloc>:
  return freep;
}

void*
malloc(uint nbytes)
{
 700:	55                   	push   %ebp
 701:	89 e5                	mov    %esp,%ebp
 703:	57                   	push   %edi
 704:	56                   	push   %esi
 705:	53                   	push   %ebx
 706:	83 ec 1c             	sub    $0x1c,%esp
  Header *p, *prevp;
  uint nunits;

  nunits = (nbytes + sizeof(Header) - 1)/sizeof(Header) + 1;
 709:	8b 45 08             	mov    0x8(%ebp),%eax
  if((prevp = freep) == 0){
 70c:	8b 3d bc 0b 00 00    	mov    0xbbc,%edi
  nunits = (nbytes + sizeof(Header) - 1)/sizeof(Header) + 1;
 712:	8d 70 07             	lea    0x7(%eax),%esi
 715:	c1 ee 03             	shr    $0x3,%esi
 718:	83 c6 01             	add    $0x1,%esi
  if((prevp = freep) == 0){
 71b:	85 ff                	test   %edi,%edi
 71d:	0f 84 9d 00 00 00    	je     7c0 <malloc+0xc0>
    base.s.ptr = freep = prevp = &base;
    base.s.size = 0;
  }
  for(p = prevp->s.ptr; ; prevp = p, p = p->s.ptr){
 723:	8b 17                	mov    (%edi),%edx
    if(p->s.size >= nunits){
 725:	8b 4a 04             	mov    0x4(%edx),%ecx
 728:	39 f1                	cmp    %esi,%ecx
 72a:	73 6a                	jae    796 <malloc+0x96>
 72c:	bb 00 10 00 00       	mov    $0x1000,%ebx
 731:	39 de                	cmp    %ebx,%esi
 733:	0f 43 de             	cmovae %esi,%ebx
  p = sbrk(nu * sizeof(Header));
 736:	8d 04 dd 00 00 00 00 	lea    0x0(,%ebx,8),%eax
 73d:	89 45 e4             	mov    %eax,-0x1c(%ebp)
 740:	eb 17                	jmp    759 <malloc+0x59>
 742:	8d b6 00 00 00 00    	lea    0x0(%esi),%esi
  for(p = prevp->s.ptr; ; prevp = p, p = p->s.ptr){
 748:	8b 02                	mov    (%edx),%eax
    if(p->s.size >= nunits){
 74a:	8b 48 04             	mov    0x4(%eax),%ecx
 74d:	39 f1                	cmp    %esi,%ecx
 74f:	73 4f                	jae    7a0 <malloc+0xa0>
        p->s.size = nunits;
      }
      freep = prevp;
      return (void*)(p + 1);
    }
    if(p == freep)
 751:	8b 3d bc 0b 00 00    	mov    0xbbc,%edi
 757:	89 c2                	mov    %eax,%edx
 759:	39 d7                	cmp    %edx,%edi
 75b:	75 eb                	jne    748 <malloc+0x48>
  p = sbrk(nu * sizeof(Header));
 75d:	83 ec 0c             	sub    $0xc,%esp
 760:	ff 75 e4             	push   -0x1c(%ebp)
 763:	e8 83 fc ff ff       	call   3eb <sbrk>
  if(p == (char*)-1)
 768:	83 c4 10             	add    $0x10,%esp
 76b:	83 f8 ff             	cmp    $0xffffffff,%eax
 76e:	74 1c                	je     78c <malloc+0x8c>
  hp->s.size = nu;
 770:	89 58 04             	mov    %ebx,0x4(%eax)
  free((void*)(hp + 1));
 773:	83 ec 0c             	sub    $0xc,%esp
 776:	83 c0 08             	add    $0x8,%eax
 779:	50                   	push   %eax
 77a:	e8 f1 fe ff ff       	call   670 <free>
  return freep;
 77f:	8b 15 bc 0b 00 00    	mov    0xbbc,%edx
      if((p = morecore(nunits)) == 0)
 785:	83 c4 10             	add    $0x10,%esp
 788:	85 d2                	test   %edx,%edx
 78a:	75 bc                	jne    748 <malloc+0x48>
        return 0;
  }
}
 78c:	8d 65 f4             	lea    -0xc(%ebp),%esp
        return 0;
 78f:	31 c0                	xor    %eax,%eax
}
 791:	5b                   	pop    %ebx
 792:	5e                   	pop    %esi
 793:	5f                   	pop    %edi
 794:	5d                   	pop    %ebp
 795:	c3                   	ret    
    if(p->s.size >= nunits){
 796:	89 d0                	mov    %edx,%eax
 798:	89 fa                	mov    %edi,%edx
 79a:	8d b6 00 00 00 00    	lea    0x0(%esi),%esi
      if(p->s.size == nunits)
 7a0:	39 ce                	cmp    %ecx,%esi
 7a2:	74 4c                	je     7f0 <malloc+0xf0>
        p->s.size -= nunits;
 7a4:	29 f1                	sub    %esi,%ecx
 7a6:	89 48 04             	mov    %ecx,0x4(%eax)
        p += p->s.size;
 7a9:	8d 04 c8             	lea    (%eax,%ecx,8),%eax
        p->s.size = nunits;
 7ac:	89 70 04             	mov    %esi,0x4(%eax)
      freep = prevp;
 7af:	89 15 bc 0b 00 00    	mov    %edx,0xbbc
}
 7b5:	8d 65 f4             	lea    -0xc(%ebp),%esp
      return (void*)(p + 1);
 7b8:	83 c0 08             	add    $0x8,%eax
}
 7bb:	5b                   	pop    %ebx
 7bc:	5e                   	pop    %esi
 7bd:	5f                   	pop    %edi
 7be:	5d                   	pop    %ebp
 7bf:	c3                   	ret    
    base.s.ptr = freep = prevp = &base;
 7c0:	c7 05 bc 0b 00 00 c0 	movl   $0xbc0,0xbbc
 7c7:	0b 00 00 
    base.s.size = 0;
 7ca:	bf c0 0b 00 00       	mov    $0xbc0,%edi
    base.s.ptr = freep = prevp = &base;
 7cf:	c7 05 c0 0b 00 00 c0 	movl   $0xbc0,0xbc0
 7d6:	0b 00 00 
  for(p = prevp->s.ptr; ; prevp = p, p = p->s.ptr){
 7d9:	89 fa                	mov    %edi,%edx
    base.s.size = 0;
 7db:	c7 05 c4 0b 00 00 00 	movl   $0x0,0xbc4
 7e2:	00 00 00 
    if(p->s.size >= nunits){
 7e5:	e9 42 ff ff ff       	jmp    72c <malloc+0x2c>
 7ea:	8d b6 00 00 00 00    	lea    0x0(%esi),%esi
        prevp->s.ptr = p->s.ptr;
 7f0:	8b 08                	mov    (%eax),%ecx
 7f2:	89 0a                	mov    %ecx,(%edx)
 7f4:	eb b9                	jmp    7af <malloc+0xaf>
 7f6:	66 90                	xchg   %ax,%ax
 7f8:	66 90                	xchg   %ax,%ax
 7fa:	66 90                	xchg   %ax,%ax
 7fc:	66 90                	xchg   %ax,%ax
 7fe:	66 90                	xchg   %ax,%ax

00000800 <srand>:

static unsigned long next = 1;

/* RAND_MAX assumed to be 32767 */

void srand(unsigned seed) {
 800:	55                   	push   %ebp
 801:	89 e5                	mov    %esp,%ebp
    next = seed;
 803:	8b 45 08             	mov    0x8(%ebp),%eax
}
 806:	5d                   	pop    %ebp
    next = seed;
 807:	a3 b8 0b 00 00       	mov    %eax,0xbb8
}
 80c:	c3                   	ret    
 80d:	8d 76 00             	lea    0x0(%esi),%esi

00000810 <rand>:
int rand(void) {
    next = next * 1103515245 + 12345;
 810:	69 05 b8 0b 00 00 6d 	imul   $0x41c64e6d,0xbb8,%eax
 817:	4e c6 41 
 81a:	05 39 30 00 00       	add    $0x3039,%eax
 81f:	a3 b8 0b 00 00       	mov    %eax,0xbb8
    return((unsigned)(next/65536) % RAND_MAX);
 824:	c1 e8 10             	shr    $0x10,%eax
}
 827:	c3                   	ret    
